; Function Attrs: nofree norecurse nosync nounwind memory(argmem: readwrite) uwtable
define hidden void @storecompressed512(ptr noundef writeonly captures(none) %0, ptr noundef readonly captures(none) %1, ptr noundef readonly captures(none) %2, i32 noundef %3) local_unnamed_addr #4 {
  %5 = alloca [8 x i32], align 16
  %6 = alloca [8 x i64], align 16
  %.sroa.03.0.copyload = load i64, ptr %2, align 1
  %.sroa.44.0..sroa_idx = getelementptr inbounds nuw i8, ptr %2, i64 8
  %.sroa.44.0.copyload = load i64, ptr %.sroa.44.0..sroa_idx, align 1
  %.sroa.55.0..sroa_idx = getelementptr inbounds nuw i8, ptr %2, i64 16
  %.sroa.55.0.copyload = load i64, ptr %.sroa.55.0..sroa_idx, align 1
  %.sroa.66.0..sroa_idx = getelementptr inbounds nuw i8, ptr %2, i64 24
  %.sroa.66.0.copyload = load i64, ptr %.sroa.66.0..sroa_idx, align 1
  %.sroa.77.0..sroa_idx = getelementptr inbounds nuw i8, ptr %2, i64 32
  %.sroa.77.0.copyload = load i64, ptr %.sroa.77.0..sroa_idx, align 1
  %.sroa.88.0..sroa_idx = getelementptr inbounds nuw i8, ptr %2, i64 40
  %.sroa.88.0.copyload = load i64, ptr %.sroa.88.0..sroa_idx, align 1
  %.sroa.99.0..sroa_idx = getelementptr inbounds nuw i8, ptr %2, i64 48
  %.sroa.99.0.copyload = load i64, ptr %.sroa.99.0..sroa_idx, align 1
  %.sroa.1010.0..sroa_idx = getelementptr inbounds nuw i8, ptr %2, i64 56
  %.sroa.1010.0.copyload = load i64, ptr %.sroa.1010.0..sroa_idx, align 1
  %.sroa.0.0.copyload = load i64, ptr %1, align 1
  %.sroa.4.0..sroa_idx = getelementptr inbounds nuw i8, ptr %1, i64 8
  %.sroa.4.0.copyload = load i64, ptr %.sroa.4.0..sroa_idx, align 1
  %.sroa.5.0..sroa_idx = getelementptr inbounds nuw i8, ptr %1, i64 16
  %.sroa.5.0.copyload = load i64, ptr %.sroa.5.0..sroa_idx, align 1
  %.sroa.6.0..sroa_idx = getelementptr inbounds nuw i8, ptr %1, i64 24
  %.sroa.6.0.copyload = load i64, ptr %.sroa.6.0..sroa_idx, align 1
  %.sroa.7.0..sroa_idx = getelementptr inbounds nuw i8, ptr %1, i64 32
  %.sroa.7.0.copyload = load i64, ptr %.sroa.7.0..sroa_idx, align 1
  %.sroa.8.0..sroa_idx = getelementptr inbounds nuw i8, ptr %1, i64 40
  %.sroa.8.0.copyload = load i64, ptr %.sroa.8.0..sroa_idx, align 1
  %.sroa.9.0..sroa_idx = getelementptr inbounds nuw i8, ptr %1, i64 48
  %.sroa.9.0.copyload = load i64, ptr %.sroa.9.0..sroa_idx, align 1
  %.sroa.10.0..sroa_idx = getelementptr inbounds nuw i8, ptr %1, i64 56
  %.sroa.10.0.copyload = load i64, ptr %.sroa.10.0..sroa_idx, align 1
  call void @llvm.lifetime.start.p0(i64 32, ptr nonnull %5) #7
  %7 = tail call range(i64 0, 65) i64 @llvm.ctpop.i64(i64 %.sroa.03.0.copyload)
  %8 = trunc nuw nsw i64 %7 to i32
  store i32 %8, ptr %5, align 16
  %9 = getelementptr inbounds nuw i8, ptr %5, i64 4
  %10 = tail call range(i64 0, 65) i64 @llvm.ctpop.i64(i64 %.sroa.44.0.copyload)
  %11 = trunc nuw nsw i64 %10 to i32
  store i32 %11, ptr %9, align 4
  %12 = getelementptr inbounds nuw i8, ptr %5, i64 8
  %13 = tail call range(i64 0, 65) i64 @llvm.ctpop.i64(i64 %.sroa.55.0.copyload)
  %14 = trunc nuw nsw i64 %13 to i32
  store i32 %14, ptr %12, align 8
  %15 = getelementptr inbounds nuw i8, ptr %5, i64 12
  %16 = tail call range(i64 0, 65) i64 @llvm.ctpop.i64(i64 %.sroa.66.0.copyload)
  %17 = trunc nuw nsw i64 %16 to i32
  store i32 %17, ptr %15, align 4
  %18 = getelementptr inbounds nuw i8, ptr %5, i64 16
  %19 = tail call range(i64 0, 65) i64 @llvm.ctpop.i64(i64 %.sroa.77.0.copyload)
  %20 = trunc nuw nsw i64 %19 to i32
  store i32 %20, ptr %18, align 16
  %21 = getelementptr inbounds nuw i8, ptr %5, i64 20
  %22 = tail call range(i64 0, 65) i64 @llvm.ctpop.i64(i64 %.sroa.88.0.copyload)
  %23 = trunc nuw nsw i64 %22 to i32
  store i32 %23, ptr %21, align 4
  %24 = getelementptr inbounds nuw i8, ptr %5, i64 24
  %25 = tail call range(i64 0, 65) i64 @llvm.ctpop.i64(i64 %.sroa.99.0.copyload)
  %26 = trunc nuw nsw i64 %25 to i32
  store i32 %26, ptr %24, align 8
  %27 = getelementptr inbounds nuw i8, ptr %5, i64 28
  %28 = tail call range(i64 0, 65) i64 @llvm.ctpop.i64(i64 %.sroa.1010.0.copyload)
  %29 = trunc nuw nsw i64 %28 to i32
  store i32 %29, ptr %27, align 4
  call void @llvm.lifetime.start.p0(i64 64, ptr nonnull %6) #7
  %30 = tail call i64 @llvm.x86.bmi.pext.64(i64 %.sroa.0.0.copyload, i64 %.sroa.03.0.copyload)
  store i64 %30, ptr %6, align 16
  %31 = getelementptr inbounds nuw i8, ptr %6, i64 8
  %32 = tail call i64 @llvm.x86.bmi.pext.64(i64 %.sroa.4.0.copyload, i64 %.sroa.44.0.copyload)
  store i64 %32, ptr %31, align 8
  %33 = getelementptr inbounds nuw i8, ptr %6, i64 16
  %34 = tail call i64 @llvm.x86.bmi.pext.64(i64 %.sroa.5.0.copyload, i64 %.sroa.55.0.copyload)
  store i64 %34, ptr %33, align 16
  %35 = getelementptr inbounds nuw i8, ptr %6, i64 24
  %36 = tail call i64 @llvm.x86.bmi.pext.64(i64 %.sroa.6.0.copyload, i64 %.sroa.66.0.copyload)
  store i64 %36, ptr %35, align 8
  %37 = getelementptr inbounds nuw i8, ptr %6, i64 32
  %38 = tail call i64 @llvm.x86.bmi.pext.64(i64 %.sroa.7.0.copyload, i64 %.sroa.77.0.copyload)
  store i64 %38, ptr %37, align 16
  %39 = getelementptr inbounds nuw i8, ptr %6, i64 40
  %40 = tail call i64 @llvm.x86.bmi.pext.64(i64 %.sroa.8.0.copyload, i64 %.sroa.88.0.copyload)
  store i64 %40, ptr %39, align 8
  %41 = getelementptr inbounds nuw i8, ptr %6, i64 48
  %42 = tail call i64 @llvm.x86.bmi.pext.64(i64 %.sroa.9.0.copyload, i64 %.sroa.99.0.copyload)
  store i64 %42, ptr %41, align 16
  %43 = getelementptr inbounds nuw i8, ptr %6, i64 56
  %44 = tail call i64 @llvm.x86.bmi.pext.64(i64 %.sroa.10.0.copyload, i64 %.sroa.1010.0.copyload)
  store i64 %44, ptr %43, align 8
  br label %78

45:                                               ; preds = %98
  %46 = add nuw i32 %.126.i, 7
  %47 = lshr i32 %46, 3
  switch i32 %47, label %pack_bits_64.exit [
    i32 8, label %48
    i32 7, label %49
    i32 6, label %57
    i32 5, label %62
    i32 4, label %67
    i32 3, label %69
    i32 2, label %74
    i32 1, label %76
  ]

48:                                               ; preds = %45
  store i64 %.2.i, ptr %.1.i, align 1
  br label %pack_bits_64.exit

49:                                               ; preds = %45
  %50 = trunc i64 %.2.i to i32
  store i32 %50, ptr %.1.i, align 1
  %51 = getelementptr inbounds nuw i8, ptr %.1.i, i64 4
  %52 = lshr i64 %.2.i, 32
  %53 = trunc i64 %52 to i16
  store i16 %53, ptr %51, align 1
  %54 = lshr i64 %.2.i, 48
  %55 = trunc i64 %54 to i8
  %56 = getelementptr inbounds nuw i8, ptr %.1.i, i64 6
  store i8 %55, ptr %56, align 1
  br label %pack_bits_64.exit

57:                                               ; preds = %45
  %58 = trunc i64 %.2.i to i32
  store i32 %58, ptr %.1.i, align 1
  %59 = getelementptr inbounds nuw i8, ptr %.1.i, i64 4
  %60 = lshr i64 %.2.i, 32
  %61 = trunc i64 %60 to i16
  store i16 %61, ptr %59, align 1
  br label %pack_bits_64.exit

62:                                               ; preds = %45
  %63 = trunc i64 %.2.i to i32
  store i32 %63, ptr %.1.i, align 1
  %64 = lshr i64 %.2.i, 32
  %65 = trunc i64 %64 to i8
  %66 = getelementptr inbounds nuw i8, ptr %.1.i, i64 4
  store i8 %65, ptr %66, align 1
  br label %pack_bits_64.exit

67:                                               ; preds = %45
  %68 = trunc i64 %.2.i to i32
  store i32 %68, ptr %.1.i, align 1
  br label %pack_bits_64.exit

69:                                               ; preds = %45
  %70 = trunc i64 %.2.i to i16
  store i16 %70, ptr %.1.i, align 1
  %71 = lshr i64 %.2.i, 16
  %72 = trunc i64 %71 to i8
  %73 = getelementptr inbounds nuw i8, ptr %.1.i, i64 2
  store i8 %72, ptr %73, align 1
  br label %pack_bits_64.exit

74:                                               ; preds = %45
  %75 = trunc i64 %.2.i to i16
  store i16 %75, ptr %.1.i, align 1
  br label %pack_bits_64.exit

76:                                               ; preds = %45
  %77 = trunc i64 %.2.i to i8
  store i8 %77, ptr %.1.i, align 1
  br label %pack_bits_64.exit

78:                                               ; preds = %4, %98
  %indvars.iv = phi i64 [ 0, %4 ], [ %indvars.iv.next, %98 ]
  %.0.i14 = phi ptr [ %0, %4 ], [ %.1.i, %98 ]
  %.025.i12 = phi i32 [ 0, %4 ], [ %.126.i, %98 ]
  %.027.i11 = phi i64 [ 0, %4 ], [ %.2.i, %98 ]
  %79 = getelementptr inbounds nuw i64, ptr %6, i64 %indvars.iv
  %80 = load i64, ptr %79, align 8
  %81 = zext nneg i32 %.025.i12 to i64
  %82 = shl i64 %80, %81
  %83 = or i64 %82, %.027.i11
  %84 = getelementptr inbounds nuw i32, ptr %5, i64 %indvars.iv
  %85 = load i32, ptr %84, align 4
  %86 = add i32 %85, %.025.i12
  %87 = icmp ugt i32 %86, 63
  br i1 %87, label %88, label %98

88:                                               ; preds = %78
  store i64 %83, ptr %.0.i14, align 1
  %89 = getelementptr inbounds nuw i8, ptr %.0.i14, i64 8
  %90 = add i32 %86, -64
  %91 = load i32, ptr %84, align 4
  %92 = sub i32 %91, %90
  %93 = icmp eq i32 %92, 64
  br i1 %93, label %98, label %94

94:                                               ; preds = %88
  %95 = load i64, ptr %79, align 8
  %96 = zext nneg i32 %92 to i64
  %97 = lshr i64 %95, %96
  br label %98

98:                                               ; preds = %94, %88, %78
  %.2.i = phi i64 [ %83, %78 ], [ %97, %94 ], [ 0, %88 ]
  %.126.i = phi i32 [ %86, %78 ], [ %90, %94 ], [ %90, %88 ]
  %.1.i = phi ptr [ %.0.i14, %78 ], [ %89, %94 ], [ %89, %88 ]
  %indvars.iv.next = add nuw nsw i64 %indvars.iv, 1
  %exitcond.not = icmp eq i64 %indvars.iv.next, 8
  br i1 %exitcond.not, label %45, label %78

pack_bits_64.exit:                                ; preds = %45, %48, %49, %57, %62, %67, %69, %74, %76
  call void @llvm.lifetime.end.p0(i64 64, ptr nonnull %6) #7
  call void @llvm.lifetime.end.p0(i64 32, ptr nonnull %5) #7
  ret void
}